target datalayout = "e-m:e-p270:32:32-p271:32:32-p272:64:64-i64:64-i128:128-f80:128-n8:16:32:64-S128"
target triple = "x86_64-pc-linux-gnu"

%struct.key_info = type { [4096 x i8], [11 x i8], [35 x i8] }

@.str.88 = private unnamed_addr constant [8 x i8] c"METHOD=\00", align 1
@.str.89 = private unnamed_addr constant [5 x i8] c"URI=\00", align 1
@.str.90 = private unnamed_addr constant [4 x i8] c"IV=\00", align 1

; Function Attrs: nounwind uwtable
define internal void @handle_key_args(ptr noundef %0, ptr noundef %1, i32 noundef %2, ptr noundef %3, ptr noundef %4) #0 {
  %6 = alloca ptr, align 8
  %7 = alloca ptr, align 8
  %8 = alloca i32, align 4
  %9 = alloca ptr, align 8
  %10 = alloca ptr, align 8
  store ptr %0, ptr %6, align 8, !tbaa !247
  store ptr %1, ptr %7, align 8, !tbaa !125
  store i32 %2, ptr %8, align 4, !tbaa !14
  store ptr %3, ptr %9, align 8, !tbaa !243
  store ptr %4, ptr %10, align 8, !tbaa !245
  %11 = load ptr, ptr %7, align 8, !tbaa !125
  %12 = load i32, ptr %8, align 4, !tbaa !14
  %13 = sext i32 %12 to i64
  %14 = call i32 @strncmp(ptr noundef %11, ptr noundef @.str.88, i64 noundef %13) #14
  %15 = icmp ne i32 %14, 0
  br i1 %15, label %22, label %16

16:                                               ; preds = %5
  %17 = load ptr, ptr %6, align 8, !tbaa !247
  %18 = getelementptr inbounds nuw %struct.key_info, ptr %17, i32 0, i32 1
  %19 = getelementptr inbounds [11 x i8], ptr %18, i64 0, i64 0
  %20 = load ptr, ptr %9, align 8, !tbaa !243
  store ptr %19, ptr %20, align 8, !tbaa !125
  %21 = load ptr, ptr %10, align 8, !tbaa !245
  store i32 11, ptr %21, align 4, !tbaa !14
  br label %48

22:                                               ; preds = %5
  %23 = load ptr, ptr %7, align 8, !tbaa !125
  %24 = load i32, ptr %8, align 4, !tbaa !14
  %25 = sext i32 %24 to i64
  %26 = call i32 @strncmp(ptr noundef %23, ptr noundef @.str.89, i64 noundef %25) #14
  %27 = icmp ne i32 %26, 0
  br i1 %27, label %34, label %28

28:                                               ; preds = %22
  %29 = load ptr, ptr %6, align 8, !tbaa !247
  %30 = getelementptr inbounds nuw %struct.key_info, ptr %29, i32 0, i32 0
  %31 = getelementptr inbounds [4096 x i8], ptr %30, i64 0, i64 0
  %32 = load ptr, ptr %9, align 8, !tbaa !243
  store ptr %31, ptr %32, align 8, !tbaa !125
  %33 = load ptr, ptr %10, align 8, !tbaa !245
  store i32 4096, ptr %33, align 4, !tbaa !14
  br label %47

34:                                               ; preds = %22
  %35 = load ptr, ptr %7, align 8, !tbaa !125
  %36 = load i32, ptr %8, align 4, !tbaa !14
  %37 = sext i32 %36 to i64
  %38 = call i32 @strncmp(ptr noundef %35, ptr noundef @.str.90, i64 noundef %37) #14
  %39 = icmp ne i32 %38, 0
  br i1 %39, label %46, label %40

40:                                               ; preds = %34
  %41 = load ptr, ptr %6, align 8, !tbaa !247
  %42 = getelementptr inbounds nuw %struct.key_info, ptr %41, i32 0, i32 2
  %43 = getelementptr inbounds [35 x i8], ptr %42, i64 0, i64 0
  %44 = load ptr, ptr %9, align 8, !tbaa !243
  store ptr %43, ptr %44, align 8, !tbaa !125
  %45 = load ptr, ptr %10, align 8, !tbaa !245
  store i32 35, ptr %45, align 4, !tbaa !14
  br label %46

46:                                               ; preds = %40, %34
  br label %47

47:                                               ; preds = %46, %28
  br label %48

48:                                               ; preds = %47, %16
  ret void
}