; Function Attrs: mustprogress nofree norecurse nounwind willreturn memory(argmem: readwrite) uwtable
define internal void @handle_key_args(ptr noundef %0, ptr noundef readonly captures(none) %1, i32 noundef %2, ptr noundef writeonly captures(none) %3, ptr noundef writeonly captures(none) %4) #6 {
  %6 = sext i32 %2 to i64
  %7 = tail call i32 @strncmp(ptr noundef %1, ptr noundef nonnull @.str.88, i64 noundef %6) #15
  %.not = icmp eq i32 %7, 0
  br i1 %.not, label %8, label %10

8:                                                ; preds = %5
  %9 = getelementptr inbounds nuw i8, ptr %0, i64 4096
  br label %.sink.split

10:                                               ; preds = %5
  %11 = tail call i32 @strncmp(ptr noundef %1, ptr noundef nonnull @.str.89, i64 noundef %6) #15
  %.not14 = icmp eq i32 %11, 0
  br i1 %.not14, label %.sink.split, label %12

12:                                               ; preds = %10
  %13 = tail call i32 @strncmp(ptr noundef %1, ptr noundef nonnull @.str.90, i64 noundef %6) #15
  %.not15 = icmp eq i32 %13, 0
  br i1 %.not15, label %14, label %16

14:                                               ; preds = %12
  %15 = getelementptr inbounds nuw i8, ptr %0, i64 4107
  br label %.sink.split

.sink.split:                                      ; preds = %10, %8, %14
  %.sink16 = phi ptr [ %15, %14 ], [ %9, %8 ], [ %0, %10 ]
  %.sink = phi i32 [ 35, %14 ], [ 11, %8 ], [ 4096, %10 ]
  store ptr %.sink16, ptr %3, align 8, !tbaa !223
  store i32 %.sink, ptr %4, align 4, !tbaa !168
  br label %16

16:                                               ; preds = %.sink.split, %12
  ret void
}